; Function Attrs: nounwind uwtable
define internal fastcc range(i32 -1, 1) i32 @get_long(ptr noundef readonly captures(none) %0, ptr noundef %1, ptr noundef nonnull writeonly captures(none) %2) unnamed_addr #0 {
  %4 = getelementptr i8, ptr %1, i64 8
  %.val.i = load ptr, ptr %4, align 8, !tbaa !24
  %5 = getelementptr i8, ptr %.val.i, i64 168
  %.val11.i = load i64, ptr %5, align 8, !tbaa !51
  %6 = and i64 %.val11.i, 16777216
  %.not.i9 = icmp eq i64 %6, 0
  br i1 %.not.i9, label %7, label %11

7:                                                ; preds = %3
  %8 = tail call i32 @PyIndex_Check(ptr noundef nonnull %1) #7
  %.not10.i = icmp eq i32 %8, 0
  br i1 %.not10.i, label %get_pylong.exit.thread12, label %get_pylong.exit

get_pylong.exit.thread12:                         ; preds = %7
  %9 = getelementptr inbounds nuw i8, ptr %0, i64 24
  %10 = load ptr, ptr %9, align 8, !tbaa !16
  tail call void @PyErr_SetString(ptr noundef %10, ptr noundef nonnull @.str.50) #7
  br label %28

11:                                               ; preds = %3
  %12 = load i32, ptr %1, align 8, !tbaa !18
  %13 = icmp slt i32 %12, 0
  br i1 %13, label %get_pylong.exit.thread, label %14

14:                                               ; preds = %11
  %15 = add nuw i32 %12, 1
  store i32 %15, ptr %1, align 8, !tbaa !18
  br label %get_pylong.exit.thread

get_pylong.exit:                                  ; preds = %7
  %16 = tail call ptr @_PyNumber_Index(ptr noundef nonnull %1) #7
  %17 = icmp eq ptr %16, null
  br i1 %17, label %28, label %get_pylong.exit.thread

get_pylong.exit.thread:                           ; preds = %14, %11, %get_pylong.exit
  %.08.i11 = phi ptr [ %16, %get_pylong.exit ], [ %1, %11 ], [ %1, %14 ]
  %18 = tail call i64 @PyLong_AsLong(ptr noundef nonnull %.08.i11) #7
  %19 = load i32, ptr %.08.i11, align 8, !tbaa !18
  %.not.i = icmp sgt i32 %19, -1
  br i1 %.not.i, label %20, label %Py_DECREF.exit

20:                                               ; preds = %get_pylong.exit.thread
  %21 = add nsw i32 %19, -1
  store i32 %21, ptr %.08.i11, align 8, !tbaa !18
  %22 = icmp eq i32 %21, 0
  br i1 %22, label %23, label %Py_DECREF.exit

23:                                               ; preds = %20
  tail call void @_Py_Dealloc(ptr noundef nonnull %.08.i11) #7
  br label %Py_DECREF.exit

Py_DECREF.exit:                                   ; preds = %get_pylong.exit.thread, %20, %23
  %24 = icmp eq i64 %18, -1
  br i1 %24, label %25, label %27

25:                                               ; preds = %Py_DECREF.exit
  %26 = tail call ptr @PyErr_Occurred() #7
  %.not = icmp eq ptr %26, null
  br i1 %.not, label %27, label %28

27:                                               ; preds = %25, %Py_DECREF.exit
  store i64 %18, ptr %2, align 8, !tbaa !81
  br label %28

28:                                               ; preds = %get_pylong.exit.thread12, %25, %get_pylong.exit, %27
  %.0 = phi i32 [ 0, %27 ], [ -1, %get_pylong.exit ], [ -1, %25 ], [ -1, %get_pylong.exit.thread12 ]
  ret i32 %.0
}